target datalayout = "e-m:e-p270:32:32-p271:32:32-p272:64:64-i64:64-i128:128-f80:128-n8:16:32:64-S128"
target triple = "x86_64-pc-linux-gnu"

%class.Klass = type <{ %class.Metadata, i32, i32, i32, i32, ptr, ptr, ptr, [8 x ptr], %class.OopHandle, ptr, ptr, ptr, ptr, ptr, i32, %class.AccessFlags, i64, i64, i8, i8, i16, i16, [2 x i8], i32, [4 x i8] }>
%class.Metadata = type { ptr }
%class.OopHandle = type { ptr }
%class.AccessFlags = type { i32 }
%class.PerfData = type { ptr, ptr, i32, i32, i8, i32, ptr, ptr }
%class.AbstractClassHierarchyWalker = type <{ ptr, i32, [4 x i8], [4 x ptr], i32, [4 x i8] }>
%class.ConcreteSubtypeFinder = type { %class.AbstractClassHierarchyWalker.base, [4 x i8] }
%class.AbstractClassHierarchyWalker.base = type <{ ptr, i32, [4 x i8], [4 x ptr], i32 }>

@_ZN28AbstractClassHierarchyWalker39_perf_find_witness_anywhere_calls_countE = hidden global ptr null, align 8
@_ZN28AbstractClassHierarchyWalker33_perf_find_witness_in_calls_countE = hidden global ptr null, align 8
@UsePerfData = external global i8, align 1
@_ZTV21ConcreteSubtypeFinder = hidden unnamed_addr constant { [4 x ptr] } { [4 x ptr] [ptr null, ptr null, ptr @_ZN21ConcreteSubtypeFinder15find_witness_inER14KlassDepChange, ptr @_ZN21ConcreteSubtypeFinder21find_witness_anywhereEP13InstanceKlass] }, align 8
@_ZTV28AbstractClassHierarchyWalker = linkonce_odr hidden unnamed_addr constant { [4 x ptr] } { [4 x ptr] [ptr null, ptr null, ptr @__cxa_pure_virtual, ptr @__cxa_pure_virtual] }, comdat, align 8

; Function Attrs: mustprogress nounwind uwtable
define linkonce_odr hidden noundef zeroext i1 @_ZNK11AccessFlags12is_interfaceEv(ptr noundef nonnull align 4 dereferenceable(4) %0) #1 comdat align 2 {
  %2 = alloca ptr, align 8
  store ptr %0, ptr %2, align 8
  %3 = load ptr, ptr %2, align 8
  %4 = getelementptr inbounds %class.AccessFlags, ptr %3, i32 0, i32 0
  %5 = load i32, ptr %4, align 4
  %6 = and i32 %5, 512
  %7 = icmp ne i32 %6, 0
  ret i1 %7
}

; Function Attrs: mustprogress nounwind uwtable
define linkonce_odr hidden void @_ZN28AbstractClassHierarchyWalker15add_participantEP5Klass(ptr noundef nonnull align 8 dereferenceable(52) %0, ptr noundef %1) #1 comdat align 2 {
  %3 = alloca ptr, align 8
  %4 = alloca ptr, align 8
  %5 = alloca i32, align 4
  store ptr %0, ptr %3, align 8
  store ptr %1, ptr %4, align 8
  %6 = load ptr, ptr %3, align 8
  %7 = getelementptr inbounds %class.AbstractClassHierarchyWalker, ptr %6, i32 0, i32 4
  %8 = load i32, ptr %7, align 8
  %9 = add i32 %8, 1
  store i32 %9, ptr %7, align 8
  store i32 %8, ptr %5, align 4
  %10 = load ptr, ptr %4, align 8
  %11 = getelementptr inbounds %class.AbstractClassHierarchyWalker, ptr %6, i32 0, i32 3
  %12 = load i32, ptr %5, align 4
  %13 = zext i32 %12 to i64
  %14 = getelementptr inbounds [4 x ptr], ptr %11, i64 0, i64 %13
  store ptr %10, ptr %14, align 8
  ret void
}

; Function Attrs: mustprogress nounwind uwtable
define linkonce_odr hidden void @_ZN15PerfLongVariant3incEv(ptr noundef nonnull align 8 dereferenceable(56) %0) #1 comdat align 2 {
  %2 = alloca ptr, align 8
  store ptr %0, ptr %2, align 8
  %3 = load ptr, ptr %2, align 8
  %4 = getelementptr inbounds %class.PerfData, ptr %3, i32 0, i32 7
  %5 = load ptr, ptr %4, align 8
  %6 = load i64, ptr %5, align 8
  %7 = add nsw i64 %6, 1
  store i64 %7, ptr %5, align 8
  ret void
}

; Function Attrs: mustprogress nounwind uwtable
define linkonce_odr hidden noundef zeroext i1 @_ZNK5Klass12is_interfaceEv(ptr noundef nonnull align 8 dereferenceable(196) %0) #1 comdat align 2 {
  %2 = alloca ptr, align 8
  store ptr %0, ptr %2, align 8
  %3 = load ptr, ptr %2, align 8
  %4 = getelementptr inbounds %class.Klass, ptr %3, i32 0, i32 16
  %5 = call noundef zeroext i1 @_ZNK11AccessFlags12is_interfaceEv(ptr noundef nonnull align 4 dereferenceable(4) %4)
  ret i1 %5
}

; Function Attrs: mustprogress nounwind uwtable
define linkonce_odr hidden void @_ZN28AbstractClassHierarchyWalkerC2EP5Klass(ptr noundef nonnull align 8 dereferenceable(52) %0, ptr noundef %1) unnamed_addr #1 comdat align 2 {
  %3 = alloca ptr, align 8
  %4 = alloca ptr, align 8
  %5 = alloca i32, align 4
  store ptr %0, ptr %3, align 8
  store ptr %1, ptr %4, align 8
  %6 = load ptr, ptr %3, align 8
  store ptr getelementptr inbounds inrange(-16, 16) ({ [4 x ptr] }, ptr @_ZTV28AbstractClassHierarchyWalker, i32 0, i32 0, i32 2), ptr %6, align 8
  %7 = getelementptr inbounds %class.AbstractClassHierarchyWalker, ptr %6, i32 0, i32 1
  store i32 0, ptr %7, align 8
  %8 = getelementptr inbounds %class.AbstractClassHierarchyWalker, ptr %6, i32 0, i32 4
  store i32 0, ptr %8, align 8
  store i32 0, ptr %5, align 4
  br label %9

9:                                                ; preds = %17, %2
  %10 = load i32, ptr %5, align 4
  %11 = icmp ult i32 %10, 4
  br i1 %11, label %12, label %20

12:                                               ; preds = %9
  %13 = getelementptr inbounds %class.AbstractClassHierarchyWalker, ptr %6, i32 0, i32 3
  %14 = load i32, ptr %5, align 4
  %15 = zext i32 %14 to i64
  %16 = getelementptr inbounds [4 x ptr], ptr %13, i64 0, i64 %15
  store ptr null, ptr %16, align 8
  br label %17

17:                                               ; preds = %12
  %18 = load i32, ptr %5, align 4
  %19 = add i32 %18, 1
  store i32 %19, ptr %5, align 4
  br label %9, !llvm.loop !64

20:                                               ; preds = %9
  %21 = load ptr, ptr %4, align 8
  %22 = icmp ne ptr %21, null
  br i1 %22, label %23, label %25

23:                                               ; preds = %20
  %24 = load ptr, ptr %4, align 8
  call void @_ZN28AbstractClassHierarchyWalker15add_participantEP5Klass(ptr noundef nonnull align 8 dereferenceable(52) %6, ptr noundef %24)
  br label %25

25:                                               ; preds = %23, %20
  ret void
}

; Function Attrs: mustprogress nounwind uwtable
define linkonce_odr hidden noundef ptr @_ZN28AbstractClassHierarchyWalker11participantEj(ptr noundef nonnull align 8 dereferenceable(52) %0, i32 noundef %1) #1 comdat align 2 {
  %3 = alloca ptr, align 8
  %4 = alloca ptr, align 8
  %5 = alloca i32, align 4
  store ptr %0, ptr %4, align 8
  store i32 %1, ptr %5, align 4
  %6 = load ptr, ptr %4, align 8
  %7 = load i32, ptr %5, align 4
  %8 = getelementptr inbounds %class.AbstractClassHierarchyWalker, ptr %6, i32 0, i32 4
  %9 = load i32, ptr %8, align 8
  %10 = icmp ult i32 %7, %9
  br i1 %10, label %11, label %17

11:                                               ; preds = %2
  %12 = getelementptr inbounds %class.AbstractClassHierarchyWalker, ptr %6, i32 0, i32 3
  %13 = load i32, ptr %5, align 4
  %14 = zext i32 %13 to i64
  %15 = getelementptr inbounds [4 x ptr], ptr %12, i64 0, i64 %14
  %16 = load ptr, ptr %15, align 8
  store ptr %16, ptr %3, align 8
  br label %18

17:                                               ; preds = %2
  store ptr null, ptr %3, align 8
  br label %18

18:                                               ; preds = %17, %11
  %19 = load ptr, ptr %3, align 8
  ret ptr %19
}

; Function Attrs: mustprogress nounwind uwtable
define hidden noundef ptr @_ZN28AbstractClassHierarchyWalker12find_witnessEP13InstanceKlassP14KlassDepChange(ptr noundef nonnull align 8 dereferenceable(52) %0, ptr noundef %1, ptr noundef %2) #1 align 2 {
  %4 = alloca ptr, align 8
  %5 = alloca ptr, align 8
  %6 = alloca ptr, align 8
  %7 = alloca ptr, align 8
  %8 = alloca i32, align 4
  store ptr %0, ptr %5, align 8
  store ptr %1, ptr %6, align 8
  store ptr %2, ptr %7, align 8
  %9 = load ptr, ptr %5, align 8
  %10 = load ptr, ptr %6, align 8
  %11 = call noundef zeroext i1 @_ZNK5Klass12is_interfaceEv(ptr noundef nonnull align 8 dereferenceable(196) %10)
  br i1 %11, label %12, label %28

12:                                               ; preds = %3
  %13 = load ptr, ptr %6, align 8
  %14 = call noundef i32 @_ZNK13InstanceKlass16nof_implementorsEv(ptr noundef nonnull align 8 dereferenceable(464) %13)
  store i32 %14, ptr %8, align 4
  %15 = load i32, ptr %8, align 4
  %16 = icmp eq i32 %15, 0
  br i1 %16, label %17, label %18

17:                                               ; preds = %12
  store ptr null, ptr %4, align 8
  br label %53

18:                                               ; preds = %12
  %19 = load i32, ptr %8, align 4
  %20 = icmp eq i32 %19, 1
  br i1 %20, label %21, label %24

21:                                               ; preds = %18
  %22 = load ptr, ptr %6, align 8
  %23 = call noundef ptr @_ZNK13InstanceKlass11implementorEv(ptr noundef nonnull align 8 dereferenceable(464) %22)
  store ptr %23, ptr %6, align 8
  br label %26

24:                                               ; preds = %18
  %25 = load ptr, ptr %6, align 8
  store ptr %25, ptr %4, align 8
  br label %53

26:                                               ; preds = %21
  br label %27

27:                                               ; preds = %26
  br label %28

28:                                               ; preds = %27, %3
  %29 = load ptr, ptr %7, align 8
  %30 = icmp ne ptr %29, null
  br i1 %30, label %31, label %42

31:                                               ; preds = %28
  %32 = load i8, ptr @UsePerfData, align 1
  %33 = trunc i8 %32 to i1
  br i1 %33, label %34, label %36

34:                                               ; preds = %31
  %35 = load ptr, ptr @_ZN28AbstractClassHierarchyWalker33_perf_find_witness_in_calls_countE, align 8
  call void @_ZN15PerfLongVariant3incEv(ptr noundef nonnull align 8 dereferenceable(56) %35)
  br label %36

36:                                               ; preds = %34, %31
  %37 = load ptr, ptr %7, align 8
  %38 = load ptr, ptr %9, align 8
  %39 = getelementptr inbounds ptr, ptr %38, i64 0
  %40 = load ptr, ptr %39, align 8
  %41 = call noundef ptr %40(ptr noundef nonnull align 8 dereferenceable(52) %9, ptr noundef nonnull align 8 dereferenceable(16) %37)
  store ptr %41, ptr %4, align 8
  br label %53

42:                                               ; preds = %28
  %43 = load i8, ptr @UsePerfData, align 1
  %44 = trunc i8 %43 to i1
  br i1 %44, label %45, label %47

45:                                               ; preds = %42
  %46 = load ptr, ptr @_ZN28AbstractClassHierarchyWalker39_perf_find_witness_anywhere_calls_countE, align 8
  call void @_ZN15PerfLongVariant3incEv(ptr noundef nonnull align 8 dereferenceable(56) %46)
  br label %47

47:                                               ; preds = %45, %42
  %48 = load ptr, ptr %6, align 8
  %49 = load ptr, ptr %9, align 8
  %50 = getelementptr inbounds ptr, ptr %49, i64 1
  %51 = load ptr, ptr %50, align 8
  %52 = call noundef ptr %51(ptr noundef nonnull align 8 dereferenceable(52) %9, ptr noundef %48)
  store ptr %52, ptr %4, align 8
  br label %53

53:                                               ; preds = %47, %36, %24, %17
  %54 = load ptr, ptr %4, align 8
  ret ptr %54
}

; Function Attrs: mustprogress nounwind uwtable
define linkonce_odr hidden void @_ZN28AbstractClassHierarchyWalker16record_witnessesEj(ptr noundef nonnull align 8 dereferenceable(52) %0, i32 noundef %1) #1 comdat align 2 {
  %3 = alloca ptr, align 8
  %4 = alloca i32, align 4
  store ptr %0, ptr %3, align 8
  store i32 %1, ptr %4, align 4
  %5 = load ptr, ptr %3, align 8
  %6 = load i32, ptr %4, align 4
  %7 = icmp ugt i32 %6, 3
  br i1 %7, label %8, label %9

8:                                                ; preds = %2
  store i32 3, ptr %4, align 4
  br label %9

9:                                                ; preds = %8, %2
  %10 = load i32, ptr %4, align 4
  %11 = getelementptr inbounds %class.AbstractClassHierarchyWalker, ptr %5, i32 0, i32 1
  store i32 %10, ptr %11, align 8
  ret void
}

; Function Attrs: mustprogress nounwind uwtable
define linkonce_odr hidden void @_ZN21ConcreteSubtypeFinderC2EP5Klass(ptr noundef nonnull align 8 dereferenceable(52) %0, ptr noundef %1) unnamed_addr #1 comdat align 2 {
  %3 = alloca ptr, align 8
  %4 = alloca ptr, align 8
  store ptr %0, ptr %3, align 8
  store ptr %1, ptr %4, align 8
  %5 = load ptr, ptr %3, align 8
  %6 = load ptr, ptr %4, align 8
  call void @_ZN28AbstractClassHierarchyWalkerC2EP5Klass(ptr noundef nonnull align 8 dereferenceable(52) %5, ptr noundef %6)
  store ptr getelementptr inbounds inrange(-16, 16) ({ [4 x ptr] }, ptr @_ZTV21ConcreteSubtypeFinder, i32 0, i32 0, i32 2), ptr %5, align 8
  ret void
}

; Function Attrs: mustprogress nounwind uwtable
define hidden noundef ptr @_ZN12Dependencies28find_unique_concrete_subtypeEP13InstanceKlass(ptr noundef %0) #1 align 2 {
  %2 = alloca ptr, align 8
  %3 = alloca ptr, align 8
  %4 = alloca %class.ConcreteSubtypeFinder, align 8
  %5 = alloca ptr, align 8
  %6 = alloca ptr, align 8
  store ptr %0, ptr %3, align 8
  %7 = load ptr, ptr %3, align 8
  call void @_ZN21ConcreteSubtypeFinderC2EP5Klass(ptr noundef nonnull align 8 dereferenceable(52) %4, ptr noundef %7)
  call void @_ZN28AbstractClassHierarchyWalker16record_witnessesEj(ptr noundef nonnull align 8 dereferenceable(52) %4, i32 noundef 1)
  %8 = load ptr, ptr %3, align 8
  %9 = call noundef ptr @_ZN28AbstractClassHierarchyWalker12find_witnessEP13InstanceKlassP14KlassDepChange(ptr noundef nonnull align 8 dereferenceable(52) %4, ptr noundef %8, ptr noundef null)
  store ptr %9, ptr %5, align 8
  %10 = load ptr, ptr %5, align 8
  %11 = icmp ne ptr %10, null
  br i1 %11, label %12, label %13

12:                                               ; preds = %1
  store ptr null, ptr %2, align 8
  br label %21

13:                                               ; preds = %1
  %14 = call noundef ptr @_ZN28AbstractClassHierarchyWalker11participantEj(ptr noundef nonnull align 8 dereferenceable(52) %4, i32 noundef 0)
  store ptr %14, ptr %6, align 8
  %15 = load ptr, ptr %6, align 8
  %16 = icmp eq ptr %15, null
  br i1 %16, label %17, label %19

17:                                               ; preds = %13
  %18 = load ptr, ptr %3, align 8
  store ptr %18, ptr %2, align 8
  br label %21

19:                                               ; preds = %13
  %20 = load ptr, ptr %6, align 8
  store ptr %20, ptr %2, align 8
  br label %21

21:                                               ; preds = %19, %17, %12
  %22 = load ptr, ptr %2, align 8
  ret ptr %22
}