; Function Attrs: mustprogress nounwind uwtable
define hidden noundef ptr @_ZN12Dependencies28find_unique_concrete_subtypeEP13InstanceKlass(ptr noundef %0) local_unnamed_addr #0 align 2 {
  %2 = alloca %"class.AbstractClassHierarchyWalker::CountingClassHierarchyIterator", align 8
  %3 = alloca %class.ConcreteSubtypeFinder, align 8
  %4 = getelementptr inbounds i8, ptr %3, i64 8
  %5 = getelementptr inbounds i8, ptr %3, i64 16
  %.not.i.i = icmp eq ptr %0, null
  call void @llvm.memset.p0.i64(ptr noundef nonnull align 8 dereferenceable(36) %5, i8 0, i64 36, i1 false)
  br i1 %.not.i.i, label %_ZN21ConcreteSubtypeFinderC2EP5Klass.exit, label %6

6:                                                ; preds = %1
  %7 = getelementptr inbounds i8, ptr %3, i64 48
  store i32 1, ptr %7, align 8
  store ptr %0, ptr %5, align 8
  br label %_ZN21ConcreteSubtypeFinderC2EP5Klass.exit

_ZN21ConcreteSubtypeFinderC2EP5Klass.exit:        ; preds = %1, %6
  %8 = phi i32 [ 0, %1 ], [ 1, %6 ]
  store ptr getelementptr inbounds inrange(-16, 16) (i8, ptr @_ZTV21ConcreteSubtypeFinder, i64 16), ptr %3, align 8
  store i32 1, ptr %4, align 8
  %9 = getelementptr inbounds i8, ptr %0, i64 164
  %10 = load i32, ptr %9, align 4
  %11 = and i32 %10, 512
  %.not13.i = icmp eq i32 %11, 0
  br i1 %.not13.i, label %16, label %12

12:                                               ; preds = %_ZN21ConcreteSubtypeFinderC2EP5Klass.exit
  %13 = tail call noundef i32 @_ZNK13InstanceKlass16nof_implementorsEv(ptr noundef nonnull align 8 dereferenceable(464) %0) #18
  switch i32 %13, label %_ZN28AbstractClassHierarchyWalker12find_witnessEP13InstanceKlassP14KlassDepChange.exit.thread11 [
    i32 0, label %_ZN28AbstractClassHierarchyWalker12find_witnessEP13InstanceKlassP14KlassDepChange.exit.thread
    i32 1, label %14
  ]

14:                                               ; preds = %12
  %15 = tail call noundef ptr @_ZNK13InstanceKlass11implementorEv(ptr noundef nonnull align 8 dereferenceable(464) %0) #18
  br label %16

16:                                               ; preds = %14, %_ZN21ConcreteSubtypeFinderC2EP5Klass.exit
  %.010.i = phi ptr [ %15, %14 ], [ %0, %_ZN21ConcreteSubtypeFinderC2EP5Klass.exit ]
  %17 = load i8, ptr @UsePerfData, align 1
  %18 = trunc i8 %17 to i1
  br i1 %18, label %19, label %_ZN28AbstractClassHierarchyWalker12find_witnessEP13InstanceKlassP14KlassDepChange.exit

19:                                               ; preds = %16
  %20 = load ptr, ptr @_ZN28AbstractClassHierarchyWalker39_perf_find_witness_anywhere_calls_countE, align 8
  %21 = getelementptr inbounds i8, ptr %20, i64 40
  %22 = load ptr, ptr %21, align 8
  %23 = load i64, ptr %22, align 8
  %24 = add nsw i64 %23, 1
  store i64 %24, ptr %22, align 8
  br label %_ZN28AbstractClassHierarchyWalker12find_witnessEP13InstanceKlassP14KlassDepChange.exit

_ZN28AbstractClassHierarchyWalker12find_witnessEP13InstanceKlassP14KlassDepChange.exit: ; preds = %16, %19
  call void @llvm.lifetime.start.p0(i64 32, ptr nonnull %2)
  store ptr %.010.i, ptr %2, align 8
  %25 = getelementptr inbounds i8, ptr %2, i64 8
  store ptr %.010.i, ptr %25, align 8
  %26 = getelementptr inbounds i8, ptr %2, i64 16
  store i8 1, ptr %26, align 8
  %27 = getelementptr inbounds i8, ptr %2, i64 24
  store i64 0, ptr %27, align 8
  %28 = icmp eq ptr %.010.i, null
  br i1 %28, label %_ZN21ConcreteSubtypeFinder10is_witnessEP5Klass.exit.i, label %.lr.ph11.i

.lr.ph11.i:                                       ; preds = %_ZN28AbstractClassHierarchyWalker12find_witnessEP13InstanceKlassP14KlassDepChange.exit
  %29 = getelementptr inbounds i8, ptr %3, i64 48
  br label %30

30:                                               ; preds = %_ZN21ConcreteSubtypeFinder10is_witnessEP5Klass.exit.thread.i, %.lr.ph11.i
  %31 = phi i32 [ 1, %.lr.ph11.i ], [ %50, %_ZN21ConcreteSubtypeFinder10is_witnessEP5Klass.exit.thread.i ]
  %32 = phi ptr [ %.010.i, %.lr.ph11.i ], [ %.pr.i, %_ZN21ConcreteSubtypeFinder10is_witnessEP5Klass.exit.thread.i ]
  %33 = load i32, ptr %29, align 8
  %.not.i.i16 = icmp eq i32 %33, 0
  br i1 %.not.i.i16, label %_ZN28AbstractClassHierarchyWalker14is_participantEP5Klass.exit.thread.i, label %.lr.ph.preheader.i.i

.lr.ph.preheader.i.i:                             ; preds = %30
  %34 = zext i32 %33 to i64
  %35 = load ptr, ptr %5, align 8
  %36 = icmp eq ptr %35, %32
  br i1 %36, label %.critedge.i, label %.lr.ph.i

.lr.ph.i:                                         ; preds = %.lr.ph.preheader.i.i, %.lr.ph.i.i
  %indvars.iv.i9.i = phi i64 [ %indvars.iv.next.i.i, %.lr.ph.i.i ], [ 0, %.lr.ph.preheader.i.i ]
  %indvars.iv.next.i.i = add nuw nsw i64 %indvars.iv.i9.i, 1
  %exitcond.not.i.i = icmp eq i64 %indvars.iv.next.i.i, %34
  br i1 %exitcond.not.i.i, label %_ZN28AbstractClassHierarchyWalker14is_participantEP5Klass.exit.thread.i, label %.lr.ph.i.i, !llvm.loop !48

.lr.ph.i.i:                                       ; preds = %.lr.ph.i
  %37 = getelementptr inbounds [4 x ptr], ptr %5, i64 0, i64 %indvars.iv.next.i.i
  %38 = load ptr, ptr %37, align 8
  %39 = icmp eq ptr %38, %32
  br i1 %39, label %_ZN28AbstractClassHierarchyWalker14is_participantEP5Klass.exit.i, label %.lr.ph.i, !llvm.loop !48

_ZN28AbstractClassHierarchyWalker14is_participantEP5Klass.exit.i: ; preds = %.lr.ph.i.i
  %40 = icmp ult i64 %indvars.iv.next.i.i, %34
  br i1 %40, label %.critedge.i, label %_ZN28AbstractClassHierarchyWalker14is_participantEP5Klass.exit.thread.i

.critedge.i:                                      ; preds = %_ZN28AbstractClassHierarchyWalker14is_participantEP5Klass.exit.i, %.lr.ph.preheader.i.i
  store i8 0, ptr %26, align 8
  br label %_ZN21ConcreteSubtypeFinder10is_witnessEP5Klass.exit.thread.i

_ZN28AbstractClassHierarchyWalker14is_participantEP5Klass.exit.thread.i: ; preds = %.lr.ph.i, %_ZN28AbstractClassHierarchyWalker14is_participantEP5Klass.exit.i, %30
  %41 = getelementptr inbounds i8, ptr %32, i64 164
  %42 = load i32, ptr %41, align 4
  %43 = and i32 %42, 1024
  %.not.i.i.i = icmp eq i32 %43, 0
  br i1 %.not.i.i.i, label %44, label %_ZN21ConcreteSubtypeFinder10is_witnessEP5Klass.exit.thread.i

44:                                               ; preds = %_ZN28AbstractClassHierarchyWalker14is_participantEP5Klass.exit.thread.i
  %.not.i4.i.i = icmp eq i32 %31, 0
  br i1 %.not.i4.i.i, label %_ZN21ConcreteSubtypeFinder10is_witnessEP5Klass.exit.i, label %45

45:                                               ; preds = %44
  %46 = add i32 %31, -1
  store i32 %46, ptr %4, align 8
  %47 = add i32 %33, 1
  store i32 %47, ptr %29, align 8
  %48 = zext i32 %33 to i64
  %49 = getelementptr inbounds [4 x ptr], ptr %5, i64 0, i64 %48
  store ptr %32, ptr %49, align 8
  br label %_ZN21ConcreteSubtypeFinder10is_witnessEP5Klass.exit.thread.i

_ZN21ConcreteSubtypeFinder10is_witnessEP5Klass.exit.thread.i: ; preds = %45, %_ZN28AbstractClassHierarchyWalker14is_participantEP5Klass.exit.thread.i, %.critedge.i
  %50 = phi i32 [ %46, %45 ], [ %31, %_ZN28AbstractClassHierarchyWalker14is_participantEP5Klass.exit.thread.i ], [ %31, %.critedge.i ]
  %51 = load i64, ptr %27, align 8
  %52 = add nsw i64 %51, 1
  store i64 %52, ptr %27, align 8
  call void @_ZN22ClassHierarchyIterator4nextEv(ptr noundef nonnull align 8 dereferenceable(17) %2) #18
  %.pr.i = load ptr, ptr %25, align 8
  %53 = icmp eq ptr %.pr.i, null
  br i1 %53, label %_ZN21ConcreteSubtypeFinder10is_witnessEP5Klass.exit.i, label %30, !llvm.loop !49

_ZN21ConcreteSubtypeFinder10is_witnessEP5Klass.exit.i: ; preds = %_ZN21ConcreteSubtypeFinder10is_witnessEP5Klass.exit.thread.i, %44, %_ZN28AbstractClassHierarchyWalker12find_witnessEP13InstanceKlassP14KlassDepChange.exit
  %.lcssa.i = phi i1 [ true, %_ZN28AbstractClassHierarchyWalker12find_witnessEP13InstanceKlassP14KlassDepChange.exit ], [ true, %_ZN21ConcreteSubtypeFinder10is_witnessEP5Klass.exit.thread.i ], [ false, %44 ]
  %54 = load i8, ptr @UsePerfData, align 1
  %55 = trunc i8 %54 to i1
  br i1 %55, label %56, label %_ZN21ConcreteSubtypeFinder21find_witness_anywhereEP13InstanceKlass.exit

56:                                               ; preds = %_ZN21ConcreteSubtypeFinder10is_witnessEP5Klass.exit.i
  %57 = load ptr, ptr @_ZN28AbstractClassHierarchyWalker39_perf_find_witness_anywhere_steps_countE, align 8
  %58 = load i64, ptr %27, align 8
  %59 = getelementptr inbounds i8, ptr %57, i64 40
  %60 = load ptr, ptr %59, align 8
  %61 = load i64, ptr %60, align 8
  %62 = add nsw i64 %61, %58
  store i64 %62, ptr %60, align 8
  br label %_ZN21ConcreteSubtypeFinder21find_witness_anywhereEP13InstanceKlass.exit

_ZN21ConcreteSubtypeFinder21find_witness_anywhereEP13InstanceKlass.exit: ; preds = %_ZN21ConcreteSubtypeFinder10is_witnessEP5Klass.exit.i, %56
  call void @llvm.lifetime.end.p0(i64 32, ptr nonnull %2)
  br i1 %.lcssa.i, label %_ZN28AbstractClassHierarchyWalker12find_witnessEP13InstanceKlassP14KlassDepChange.exit._ZN28AbstractClassHierarchyWalker12find_witnessEP13InstanceKlassP14KlassDepChange.exit.thread_crit_edge, label %_ZN28AbstractClassHierarchyWalker12find_witnessEP13InstanceKlassP14KlassDepChange.exit.thread11

_ZN28AbstractClassHierarchyWalker12find_witnessEP13InstanceKlassP14KlassDepChange.exit._ZN28AbstractClassHierarchyWalker12find_witnessEP13InstanceKlassP14KlassDepChange.exit.thread_crit_edge: ; preds = %_ZN21ConcreteSubtypeFinder21find_witness_anywhereEP13InstanceKlass.exit
  %.phi.trans.insert = getelementptr inbounds i8, ptr %3, i64 48
  %.pre = load i32, ptr %.phi.trans.insert, align 8
  %.pre15 = load ptr, ptr %5, align 8
  br label %_ZN28AbstractClassHierarchyWalker12find_witnessEP13InstanceKlassP14KlassDepChange.exit.thread

_ZN28AbstractClassHierarchyWalker12find_witnessEP13InstanceKlassP14KlassDepChange.exit.thread: ; preds = %_ZN28AbstractClassHierarchyWalker12find_witnessEP13InstanceKlassP14KlassDepChange.exit._ZN28AbstractClassHierarchyWalker12find_witnessEP13InstanceKlassP14KlassDepChange.exit.thread_crit_edge, %12
  %63 = phi ptr [ %.pre15, %_ZN28AbstractClassHierarchyWalker12find_witnessEP13InstanceKlassP14KlassDepChange.exit._ZN28AbstractClassHierarchyWalker12find_witnessEP13InstanceKlassP14KlassDepChange.exit.thread_crit_edge ], [ %0, %12 ]
  %64 = phi i32 [ %.pre, %_ZN28AbstractClassHierarchyWalker12find_witnessEP13InstanceKlassP14KlassDepChange.exit._ZN28AbstractClassHierarchyWalker12find_witnessEP13InstanceKlassP14KlassDepChange.exit.thread_crit_edge ], [ %8, %12 ]
  %.not14 = icmp eq i32 %64, 0
  %spec.select = select i1 %.not14, ptr null, ptr %63
  %65 = icmp eq ptr %spec.select, null
  %. = select i1 %65, ptr %0, ptr %spec.select
  br label %_ZN28AbstractClassHierarchyWalker12find_witnessEP13InstanceKlassP14KlassDepChange.exit.thread11

_ZN28AbstractClassHierarchyWalker12find_witnessEP13InstanceKlassP14KlassDepChange.exit.thread11: ; preds = %12, %_ZN28AbstractClassHierarchyWalker12find_witnessEP13InstanceKlassP14KlassDepChange.exit.thread, %_ZN21ConcreteSubtypeFinder21find_witness_anywhereEP13InstanceKlass.exit
  %.0 = phi ptr [ null, %_ZN21ConcreteSubtypeFinder21find_witness_anywhereEP13InstanceKlass.exit ], [ %., %_ZN28AbstractClassHierarchyWalker12find_witnessEP13InstanceKlassP14KlassDepChange.exit.thread ], [ null, %12 ]
  ret ptr %.0
}